; Function Attrs: mustprogress nofree norecurse nosync nounwind willreturn memory(argmem: readwrite) uwtable
define void @_ZN8proxygen2hq14HQControlCodec17checkFrameAllowedENS0_9FrameTypeE(ptr noalias nocapture writeonly sret(%"class.folly::Optional") align 8 %agg.result, ptr nocapture noundef nonnull readonly align 16 dereferenceable(232) %this, i64 noundef %type) unnamed_addr #3 align 2 personality ptr @__gxx_personality_v0 {
entry:
  switch i64 %type, label %sw.epilog [
    i64 0, label %sw.bb
    i64 1, label %sw.bb
    i64 5, label %sw.bb
    i64 65, label %sw.bb
  ]

sw.bb:                                            ; preds = %entry, %entry, %entry, %entry
  %hasValue.i.i = getelementptr inbounds i8, ptr %agg.result, i64 8
  store i64 261, ptr %agg.result, align 8
  store i8 1, ptr %hasValue.i.i, align 8
  br label %return

sw.epilog:                                        ; preds = %entry
  %streamType_.i = getelementptr inbounds i8, ptr %this, i64 8
  %0 = load i64, ptr %streamType_.i, align 8
  %cmp = icmp eq i64 %0, 0
  br i1 %cmp, label %if.then, label %if.end31

if.then:                                          ; preds = %sw.epilog
  %receivedSettings_ = getelementptr inbounds i8, ptr %this, i64 195
  %1 = load i8, ptr %receivedSettings_, align 1
  %2 = and i8 %1, 1
  %tobool = icmp ne i8 %2, 0
  %cmp2 = icmp eq i64 %type, 4
  %or.cond.not = or i1 %cmp2, %tobool
  br i1 %or.cond.not, label %if.end, label %if.then3

if.then3:                                         ; preds = %if.then
  %hasValue.i.i13 = getelementptr inbounds i8, ptr %agg.result, i64 8
  store i64 266, ptr %agg.result, align 8
  store i8 1, ptr %hasValue.i.i13, align 8
  br label %return

if.end:                                           ; preds = %if.then
  %or.cond1 = and i1 %cmp2, %tobool
  br i1 %or.cond1, label %if.then9, label %if.end11

if.then9:                                         ; preds = %if.end
  %hasValue.i.i14 = getelementptr inbounds i8, ptr %agg.result, i64 8
  store i64 261, ptr %agg.result, align 8
  store i8 1, ptr %hasValue.i.i14, align 8
  br label %return

if.end11:                                         ; preds = %if.end
  %transportDirection_ = getelementptr inbounds i8, ptr %this, i64 48
  %3 = load i8, ptr %transportDirection_, align 16
  %cmp12 = icmp eq i8 %3, 1
  %cmp14 = icmp eq i64 %type, 13
  %or.cond2 = and i1 %cmp14, %cmp12
  br i1 %or.cond2, label %if.then15, label %if.end17

if.then15:                                        ; preds = %if.end11
  %hasValue.i.i15 = getelementptr inbounds i8, ptr %agg.result, i64 8
  store i64 261, ptr %agg.result, align 8
  store i8 1, ptr %hasValue.i.i15, align 8
  br label %return

if.end17:                                         ; preds = %if.end11
  br i1 %cmp12, label %land.lhs.true21, label %if.end31

land.lhs.true21:                                  ; preds = %if.end17
  switch i64 %type, label %if.end31 [
    i64 984833, label %if.then28
    i64 984832, label %if.then28
    i64 63233, label %if.then28
    i64 63232, label %if.then28
  ]

if.then28:                                        ; preds = %land.lhs.true21, %land.lhs.true21, %land.lhs.true21, %land.lhs.true21
  %hasValue.i.i16 = getelementptr inbounds i8, ptr %agg.result, i64 8
  store i64 261, ptr %agg.result, align 8
  store i8 1, ptr %hasValue.i.i16, align 8
  br label %return

if.end31:                                         ; preds = %land.lhs.true21, %if.end17, %sw.epilog
  store i8 0, ptr %agg.result, align 8
  %hasValue.i.i17 = getelementptr inbounds i8, ptr %agg.result, i64 8
  store i8 0, ptr %hasValue.i.i17, align 8
  br label %return

return:                                           ; preds = %if.end31, %if.then28, %if.then15, %if.then9, %if.then3, %sw.bb
  ret void
}